(dp1
S'layout'
p2
(ilayout
Layout
p3
(dp4
S'capsules'
p5
(lp6
(I6
I5
tp7
a(I25
I10
tp8
asS'numGhosts'
p9
I4
sS'food'
p10
(igame
Grid
p11
(dp12
S'CELLS_PER_INT'
p13
I30
sS'width'
p14
I32
sS'data'
p15
(lp16
(lp17
I00
aI00
aI00
aI00
aI00
aI00
aI00
aI00
aI00
aI00
aI00
aI00
aI00
aI00
aI00
aI00
aa(lp18
I00
aI00
aI00
aI00
aI00
aI00
aI00
aI00
aI00
aI00
aI00
aI00
aI00
aI00
aI00
aI00
aa(lp19
I00
aI00
aI00
aI00
aI00
aI00
aI00
aI00
aI00
aI00
aI00
aI00
aI00
aI00
aI00
aI00
aa(lp20
I00
aI01
aI01
aI00
aI00
aI00
aI00
aI00
aI01
aI00
aI00
aI00
aI00
aI00
aI00
aI00
aa(lp21
I00
aI00
aI00
aI00
aI00
aI00
aI00
aI00
aI00
aI00
aI00
aI00
aI00
aI00
aI00
aI00
aa(lp22
I00
aI01
aI00
aI00
aI00
aI00
aI00
aI00
aI00
aI00
aI00
aI00
aI01
aI00
aI01
aI00
aa(lp23
I00
aI00
aI00
aI00
aI00
aI00
aI00
aI00
aI00
aI00
aI00
aI00
aI00
aI00
aI00
aI00
aa(lp24
I00
aI00
aI00
aI01
aI00
aI00
aI00
aI00
aI01
aI01
aI00
aI00
aI00
aI00
aI00
aI00
aa(lp25
I00
aI00
aI00
aI01
aI00
aI00
aI00
aI00
aI00
aI01
aI00
aI00
aI00
aI00
aI01
aI00
aa(lp26
I00
aI00
aI00
aI00
aI00
aI01
aI00
aI00
aI00
aI00
aI00
aI01
aI00
aI00
aI00
aI00
aa(lp27
I00
aI00
aI00
aI01
aI00
aI00
aI00
aI01
aI00
aI01
aI00
aI01
aI00
aI00
aI01
aI00
aa(lp28
I00
aI00
aI00
aI00
aI00
aI00
aI00
aI00
aI00
aI00
aI00
aI00
aI00
aI00
aI00
aI00
aa(lp29
I00
aI00
aI00
aI00
aI00
aI00
aI00
aI00
aI00
aI00
aI00
aI00
aI00
aI00
aI00
aI00
aa(lp30
I00
aI00
aI00
aI00
aI00
aI00
aI00
aI00
aI00
aI00
aI00
aI00
aI00
aI00
aI00
aI00
aa(lp31
I00
aI00
aI00
aI00
aI00
aI00
aI00
aI00
aI00
aI01
aI00
aI00
aI00
aI00
aI00
aI00
aa(lp32
I00
aI00
aI00
aI00
aI00
aI00
aI00
aI00
aI00
aI00
aI00
aI00
aI00
aI00
aI00
aI00
aa(lp33
I00
aI00
aI00
aI00
aI00
aI00
aI00
aI00
aI00
aI00
aI00
aI00
aI00
aI00
aI00
aI00
aa(lp34
I00
aI00
aI00
aI00
aI00
aI00
aI01
aI00
aI00
aI00
aI00
aI00
aI00
aI00
aI00
aI00
aa(lp35
I00
aI00
aI00
aI00
aI00
aI00
aI00
aI00
aI00
aI00
aI00
aI00
aI00
aI00
aI00
aI00
aa(lp36
I00
aI00
aI00
aI00
aI00
aI00
aI00
aI00
aI00
aI00
aI00
aI00
aI00
aI00
aI00
aI00
aa(lp37
I00
aI00
aI00
aI00
aI00
aI00
aI00
aI00
aI00
aI00
aI00
aI00
aI00
aI00
aI00
aI00
aa(lp38
I00
aI01
aI00
aI00
aI01
aI00
aI01
aI00
aI01
aI00
aI00
aI00
aI01
aI00
aI00
aI00
aa(lp39
I00
aI00
aI00
aI00
aI01
aI00
aI00
aI00
aI00
aI00
aI01
aI00
aI00
aI00
aI00
aI00
aa(lp40
I00
aI01
aI00
aI00
aI00
aI00
aI01
aI00
aI00
aI00
aI00
aI00
aI01
aI00
aI00
aI00
aa(lp41
I00
aI00
aI00
aI00
aI00
aI00
aI01
aI01
aI00
aI00
aI00
aI00
aI01
aI00
aI00
aI00
aa(lp42
I00
aI00
aI00
aI00
aI00
aI00
aI00
aI00
aI00
aI00
aI00
aI00
aI00
aI00
aI00
aI00
aa(lp43
I00
aI01
aI00
aI01
aI00
aI00
aI00
aI00
aI00
aI00
aI00
aI00
aI00
aI00
aI01
aI00
aa(lp44
I00
aI00
aI00
aI00
aI00
aI00
aI00
aI00
aI00
aI00
aI00
aI00
aI00
aI00
aI00
aI00
aa(lp45
I00
aI00
aI00
aI00
aI00
aI00
aI00
aI01
aI00
aI00
aI00
aI00
aI00
aI01
aI01
aI00
aa(lp46
I00
aI00
aI00
aI00
aI00
aI00
aI00
aI00
aI00
aI00
aI00
aI00
aI00
aI00
aI00
aI00
aa(lp47
I00
aI00
aI00
aI00
aI00
aI00
aI00
aI00
aI00
aI00
aI00
aI00
aI00
aI00
aI00
aI00
aa(lp48
I00
aI00
aI00
aI00
aI00
aI00
aI00
aI00
aI00
aI00
aI00
aI00
aI00
aI00
aI00
aI00
aasS'height'
p49
I16
sbsS'agentPositions'
p50
(lp51
(I00
(I1
I2
tp52
tp53
a(I00
(I30
I13
tp54
tp55
a(I00
(I1
I1
tp56
tp57
a(I00
(I30
I14
tp58
tp59
asg49
I16
sg14
I32
sS'walls'
p60
(igame
Grid
p61
(dp62
g13
I30
sg14
I32
sg15
(lp63
(lp64
I01
aI01
aI01
aI01
aI01
aI01
aI01
aI01
aI01
aI01
aI01
aI01
aI01
aI01
aI01
aI01
aa(lp65
I01
aI00
aI00
aI00
aI00
aI00
aI00
aI00
aI00
aI00
aI00
aI00
aI00
aI00
aI00
aI01
aa(lp66
I01
aI01
aI01
aI01
aI01
aI01
aI01
aI01
aI01
aI01
aI01
aI01
aI01
aI01
aI00
aI01
aa(lp67
I01
aI00
aI00
aI00
aI00
aI00
aI00
aI01
aI00
aI01
aI00
aI00
aI00
aI00
aI00
aI01
aa(lp68
I01
aI01
aI01
aI01
aI01
aI01
aI00
aI00
aI00
aI00
aI00
aI01
aI01
aI01
aI01
aI01
aa(lp69
I01
aI00
aI00
aI00
aI00
aI00
aI00
aI00
aI01
aI01
aI00
aI01
aI00
aI01
aI00
aI01
aa(lp70
I01
aI01
aI00
aI01
aI01
aI00
aI01
aI01
aI01
aI00
aI00
aI00
aI00
aI00
aI00
aI01
aa(lp71
I01
aI00
aI00
aI00
aI01
aI00
aI00
aI01
aI00
aI00
aI01
aI01
aI01
aI00
aI01
aI01
aa(lp72
I01
aI00
aI01
aI00
aI01
aI01
aI00
aI01
aI01
aI00
aI01
aI00
aI00
aI00
aI00
aI01
aa(lp73
I01
aI00
aI01
aI01
aI01
aI00
aI00
aI01
aI01
aI01
aI01
aI00
aI01
aI00
aI01
aI01
aa(lp74
I01
aI00
aI01
aI00
aI01
aI01
aI00
aI00
aI01
aI00
aI01
aI00
aI01
aI00
aI00
aI01
aa(lp75
I01
aI00
aI00
aI00
aI00
aI01
aI00
aI01
aI01
aI00
aI01
aI01
aI01
aI00
aI01
aI01
aa(lp76
I01
aI01
aI00
aI01
aI00
aI01
aI00
aI00
aI00
aI00
aI00
aI00
aI00
aI00
aI00
aI01
aa(lp77
I01
aI00
aI00
aI01
aI00
aI00
aI00
aI00
aI00
aI01
aI01
aI01
aI00
aI01
aI00
aI01
aa(lp78
I01
aI00
aI01
aI01
aI01
aI00
aI01
aI00
aI00
aI00
aI01
aI00
aI00
aI01
aI00
aI01
aa(lp79
I01
aI00
aI00
aI01
aI00
aI00
aI01
aI00
aI00
aI01
aI01
aI00
aI00
aI00
aI00
aI01
aa(lp80
I01
aI00
aI00
aI00
aI00
aI01
aI01
aI00
aI00
aI01
aI00
aI00
aI01
aI00
aI00
aI01
aa(lp81
I01
aI00
aI01
aI00
aI00
aI01
aI00
aI00
aI00
aI01
aI00
aI01
aI01
aI01
aI00
aI01
aa(lp82
I01
aI00
aI01
aI00
aI01
aI01
aI01
aI00
aI00
aI00
aI00
aI00
aI01
aI00
aI00
aI01
aa(lp83
I01
aI00
aI00
aI00
aI00
aI00
aI00
aI00
aI00
aI00
aI01
aI00
aI01
aI00
aI01
aI01
aa(lp84
I01
aI01
aI00
aI01
aI01
aI01
aI00
aI01
aI01
aI00
aI01
aI00
aI00
aI00
aI00
aI01
aa(lp85
I01
aI00
aI00
aI01
aI00
aI01
aI00
aI01
aI00
aI00
aI01
aI01
aI00
aI01
aI00
aI01
aa(lp86
I01
aI01
aI00
aI01
aI00
aI01
aI01
aI01
aI01
aI00
aI00
aI01
aI01
aI01
aI00
aI01
aa(lp87
I01
aI00
aI00
aI00
aI00
aI01
aI00
aI01
aI01
aI00
aI01
aI01
aI00
aI01
aI00
aI01
aa(lp88
I01
aI01
aI00
aI01
aI01
aI01
aI00
aI00
aI01
aI00
aI00
aI01
aI00
aI00
aI00
aI01
aa(lp89
I01
aI00
aI00
aI00
aI00
aI00
aI00
aI01
aI01
aI01
aI00
aI01
aI01
aI00
aI01
aI01
aa(lp90
I01
aI00
aI01
aI00
aI01
aI00
aI01
aI01
aI00
aI00
aI00
aI00
aI00
aI00
aI00
aI01
aa(lp91
I01
aI01
aI01
aI01
aI01
aI00
aI00
aI00
aI00
aI00
aI01
aI01
aI01
aI01
aI01
aI01
aa(lp92
I01
aI00
aI00
aI00
aI00
aI00
aI01
aI00
aI01
aI00
aI00
aI00
aI00
aI00
aI00
aI01
aa(lp93
I01
aI00
aI01
aI01
aI01
aI01
aI01
aI01
aI01
aI01
aI01
aI01
aI01
aI01
aI01
aI01
aa(lp94
I01
aI00
aI00
aI00
aI00
aI00
aI00
aI00
aI00
aI00
aI00
aI00
aI00
aI00
aI00
aI01
aa(lp95
I01
aI01
aI01
aI01
aI01
aI01
aI01
aI01
aI01
aI01
aI01
aI01
aI01
aI01
aI01
aI01
aasg49
I16
sbsS'layoutText'
p96
(lp97
S'%%%%%%%%%%%%%%%%%%%%%%%%%%%%%%%%'
p98
aS'%   %. %.%.%       %     %.%.%4%'
p99
aS'% % %%       %%  %   %%%   %.%2%'
p100
aS'% % %. % %%%    %%%% .%..% % % %'
p101
aS'% % %% % ..% %   %   %%%%% % % %'
p102
aS'% %    %%%%% %%%   %%%.% o % % %'
p103
aS'% %% % ..%.  %.%%%       %   % %'
p104
aS'% %. %%.%%%%        %.%%%%  %% %'
p105
aS'% %%  %%%%.%        %%%%.%% .% %'
p106
aS'% %   %       %%%.%  .%.. % %% %'
p107
aS'% % % o %.%%%   %%% %%%%%    % %'
p108
aS'% % % %%%%%   %   % %.. % %% % %'
p109
aS'% % % %..%. %%%%    %%% % .% % %'
p110
aS'%1%.%   %%%   %  %%       %% % %'
p111
aS'%3%.%.%     %       %.%.% .%   %'
p112
aS'%%%%%%%%%%%%%%%%%%%%%%%%%%%%%%%%'
p113
asbsS'blueTeamName'
p114
S'myTeam'
p115
sS'actions'
p116
(lp117
(I0
S'North'
p118
tp119
a(I1
S'South'
p120
tp121
a(I2
g118
tp122
a(I3
g120
tp123
a(I0
g118
tp124
a(I1
g120
tp125
a(I2
g118
tp126
a(I3
g120
tp127
a(I0
g118
tp128
a(I1
g120
tp129
a(I2
g118
tp130
a(I3
g120
tp131
a(I0
g118
tp132
a(I1
g120
tp133
a(I2
g118
tp134
a(I3
g120
tp135
a(I0
g118
tp136
a(I1
g120
tp137
a(I2
g118
tp138
a(I3
g120
tp139
a(I0
g118
tp140
a(I1
g120
tp141
a(I2
g118
tp142
a(I3
g120
tp143
a(I0
g118
tp144
a(I1
g120
tp145
a(I2
g118
tp146
a(I3
g120
tp147
a(I0
g118
tp148
a(I1
g120
tp149
a(I2
g118
tp150
a(I3
g120
tp151
a(I0
g118
tp152
a(I1
g120
tp153
a(I2
g118
tp154
a(I3
g120
tp155
a(I0
g118
tp156
a(I1
g120
tp157
a(I2
g118
tp158
a(I3
g120
tp159
a(I0
g118
tp160
a(I1
g120
tp161
a(I2
g118
tp162
a(I3
g120
tp163
a(I0
g118
tp164
a(I1
g120
tp165
a(I2
g118
tp166
a(I3
g120
tp167
a(I0
S'East'
p168
tp169
a(I1
S'West'
p170
tp171
a(I2
g118
tp172
a(I3
g120
tp173
a(I0
g168
tp174
a(I1
g170
tp175
a(I2
g168
tp176
a(I3
g170
tp177
a(I0
g120
tp178
a(I1
g118
tp179
a(I2
g168
tp180
a(I3
g170
tp181
a(I0
g120
tp182
a(I1
g118
tp183
a(I2
g120
tp184
a(I3
g118
tp185
a(I0
g120
tp186
a(I1
g118
tp187
a(I2
g120
tp188
a(I3
g118
tp189
a(I0
g120
tp190
a(I1
g118
tp191
a(I2
g120
tp192
a(I3
g118
tp193
a(I0
g168
tp194
a(I1
g170
tp195
a(I2
g120
tp196
a(I3
g118
tp197
a(I0
g120
tp198
a(I1
g118
tp199
a(I2
g168
tp200
a(I3
g170
tp201
a(I0
g120
tp202
a(I1
g118
tp203
a(I2
g120
tp204
a(I3
g118
tp205
a(I0
g120
tp206
a(I1
g118
tp207
a(I2
g120
tp208
a(I3
g118
tp209
a(I0
g168
tp210
a(I1
g118
tp211
a(I2
g120
tp212
a(I3
g118
tp213
a(I0
g120
tp214
a(I1
g170
tp215
a(I2
g168
tp216
a(I3
g170
tp217
a(I0
g120
tp218
a(I1
g118
tp219
a(I2
g120
tp220
a(I3
g118
tp221
a(I0
g168
tp222
a(I1
g170
tp223
a(I2
g170
tp224
a(I3
g118
tp225
a(I0
g168
tp226
a(I1
g170
tp227
a(I2
g118
tp228
a(I3
g170
tp229
a(I0
g118
tp230
a(I1
g120
tp231
a(I2
g118
tp232
a(I3
g170
tp233
a(I0
g168
tp234
a(I1
g170
tp235
a(I2
g170
tp236
a(I3
g120
tp237
a(I0
g168
tp238
a(I1
g170
tp239
a(I2
g168
tp240
a(I3
g170
tp241
a(I0
g168
tp242
a(I1
g170
tp243
a(I2
g120
tp244
a(I3
g170
tp245
a(I0
g168
tp246
a(I1
g170
tp247
a(I2
g120
tp248
a(I3
g170
tp249
a(I0
g168
tp250
a(I1
g170
tp251
a(I2
g168
tp252
a(I3
g170
tp253
a(I0
g118
tp254
a(I1
g170
tp255
a(I2
g120
tp256
a(I3
g170
tp257
a(I0
g168
tp258
a(I1
g120
tp259
a(I2
g168
tp260
a(I3
g120
tp261
a(I0
g168
tp262
a(I1
g170
tp263
a(I2
g168
tp264
a(I3
g170
tp265
a(I0
g168
tp266
a(I1
g170
tp267
a(I2
g118
tp268
a(I3
g120
tp269
a(I0
g168
tp270
a(I1
g170
tp271
a(I2
g168
tp272
a(I3
g170
tp273
a(I0
S'Stop'
p274
tp275
a(I1
g170
tp276
a(I2
g168
tp277
a(I3
g170
tp278
a(I0
g118
tp279
a(I1
g118
tp280
a(I2
g168
tp281
a(I3
g168
tp282
a(I0
g118
tp283
a(I1
g120
tp284
a(I2
g168
tp285
a(I3
g168
tp286
a(I0
g118
tp287
a(I1
g170
tp288
a(I2
g168
tp289
a(I3
g118
tp290
a(I0
g118
tp291
a(I1
g170
tp292
a(I2
g118
tp293
a(I3
g120
tp294
a(I0
g118
tp295
a(I1
g118
tp296
a(I2
g118
tp297
a(I3
g118
tp298
a(I0
g118
tp299
a(I1
g170
tp300
a(I2
g118
tp301
a(I3
g120
tp302
a(I0
g118
tp303
a(I1
g170
tp304
a(I2
g170
tp305
a(I3
g118
tp306
a(I0
g118
tp307
a(I1
g274
tp308
a(I2
g170
tp309
a(I3
g120
tp310
a(I0
g118
tp311
a(I1
g120
tp312
a(I2
g168
tp313
a(I3
g118
tp314
a(I0
g118
tp315
a(I1
g120
tp316
a(I2
g168
tp317
a(I3
g120
tp318
a(I0
g118
tp319
a(I1
g120
tp320
a(I2
g120
tp321
a(I3
g118
tp322
a(I0
g118
tp323
a(I1
g120
tp324
a(I2
g168
tp325
a(I3
g120
tp326
a(I0
g168
tp327
a(I1
g120
tp328
a(I2
g168
tp329
a(I3
g118
tp330
a(I0
g168
tp331
a(I1
g120
tp332
a(I2
g168
tp333
a(I3
g120
tp334
a(I0
g120
tp335
a(I1
g120
tp336
a(I2
g120
tp337
a(I3
g118
tp338
a(I0
g120
tp339
a(I1
g120
tp340
a(I2
g170
tp341
a(I3
g120
tp342
a(I0
g120
tp343
a(I1
g120
tp344
a(I2
g118
tp345
a(I3
g118
tp346
a(I0
g120
tp347
a(I1
g120
tp348
a(I2
g170
tp349
a(I3
g120
tp350
a(I0
g168
tp351
a(I1
g120
tp352
a(I2
g120
tp353
a(I3
g118
tp354
a(I0
g120
tp355
a(I1
g120
tp356
a(I2
g168
tp357
a(I3
g120
tp358
a(I0
g120
tp359
a(I1
g170
tp360
a(I2
g168
tp361
a(I3
g118
tp362
a(I0
g120
tp363
a(I1
g170
tp364
a(I2
g118
tp365
a(I3
g120
tp366
a(I0
g168
tp367
a(I1
g118
tp368
a(I2
g170
tp369
a(I3
g118
tp370
a(I0
g120
tp371
a(I1
g118
tp372
a(I2
g170
tp373
a(I3
g120
tp374
a(I0
g120
tp375
a(I1
g118
tp376
a(I2
g120
tp377
a(I3
g118
tp378
a(I0
g168
tp379
a(I1
g118
tp380
a(I2
g170
tp381
a(I3
g120
tp382
a(I0
g168
tp383
a(I1
g170
tp384
a(I2
g120
tp385
a(I3
g118
tp386
a(I0
g118
tp387
a(I1
g170
tp388
a(I2
g168
tp389
a(I3
g120
tp390
a(I0
g168
tp391
a(I1
g170
tp392
a(I2
g120
tp393
a(I3
g118
tp394
a(I0
g168
tp395
a(I1
g120
tp396
a(I2
g120
tp397
a(I3
g120
tp398
a(I0
g168
tp399
a(I1
g120
tp400
a(I2
g170
tp401
a(I3
g118
tp402
a(I0
g168
tp403
a(I1
g120
tp404
a(I2
g170
tp405
a(I3
g120
tp406
a(I0
g168
tp407
a(I1
g170
tp408
a(I2
g120
tp409
a(I3
g118
tp410
a(I0
g118
tp411
a(I1
g170
tp412
a(I2
g120
tp413
a(I3
g120
tp414
a(I0
g168
tp415
a(I1
g170
tp416
a(I2
g120
tp417
a(I3
g118
tp418
a(I0
g168
tp419
a(I1
g170
tp420
a(I2
g170
tp421
a(I3
g120
tp422
a(I0
g168
tp423
a(I1
g170
tp424
a(I2
g170
tp425
a(I3
g118
tp426
a(I0
g168
tp427
a(I1
g170
tp428
a(I2
g170
tp429
a(I3
g120
tp430
a(I0
g168
tp431
a(I1
g120
tp432
a(I2
g170
tp433
a(I3
g170
tp434
a(I0
g118
tp435
a(I1
g170
tp436
a(I2
g118
tp437
a(I3
g168
tp438
a(I0
g118
tp439
a(I1
g170
tp440
a(I2
g118
tp441
a(I3
g118
tp442
a(I0
g118
tp443
a(I1
g170
tp444
a(I2
g168
tp445
a(I3
g120
tp446
a(I0
g118
tp447
a(I1
g170
tp448
a(I2
g170
tp449
a(I3
g118
tp450
a(I0
g118
tp451
a(I1
g170
tp452
a(I2
g120
tp453
a(I3
g120
tp454
a(I0
g118
tp455
a(I1
g170
tp456
a(I2
g170
tp457
a(I3
g118
tp458
a(I0
g118
tp459
a(I1
g118
tp460
a(I2
g170
tp461
a(I3
g120
tp462
a(I0
g118
tp463
a(I1
g170
tp464
a(I2
g118
tp465
a(I3
g118
tp466
a(I0
g118
tp467
a(I1
g170
tp468
a(I2
g118
tp469
a(I3
g120
tp470
a(I0
g118
tp471
a(I1
g118
tp472
a(I2
g118
tp473
a(I3
g118
tp474
a(I0
g118
tp475
a(I1
g170
tp476
a(I2
g168
tp477
a(I3
g120
tp478
a(I0
g118
tp479
a(I1
g168
tp480
a(I2
g168
tp481
a(I3
g118
tp482
a(I0
g168
tp483
a(I1
g120
tp484
a(I2
g118
tp485
a(I3
g120
tp486
a(I0
g168
tp487
a(I1
g120
tp488
a(I2
g168
tp489
a(I3
g118
tp490
a(I0
g120
tp491
a(I1
g170
tp492
a(I2
g168
tp493
a(I3
g120
tp494
a(I0
g120
tp495
a(I1
g170
tp496
a(I2
g168
tp497
a(I3
g118
tp498
a(I0
g120
tp499
a(I1
g170
tp500
a(I2
g168
tp501
a(I3
g120
tp502
a(I0
g120
tp503
a(I1
g170
tp504
a(I2
g168
tp505
a(I3
g118
tp506
a(I0
g168
tp507
a(I1
g118
tp508
a(I2
g118
tp509
a(I3
g120
tp510
a(I0
g120
tp511
a(I1
g118
tp512
a(I2
g118
tp513
a(I3
g118
tp514
a(I0
g120
tp515
a(I1
g168
tp516
a(I2
g118
tp517
a(I3
g120
tp518
a(I0
g120
tp519
a(I1
g170
tp520
a(I2
g170
tp521
a(I3
g118
tp522
a(I0
g120
tp523
a(I1
g120
tp524
a(I2
g170
tp525
a(I3
g120
tp526
a(I0
g168
tp527
a(I1
g170
tp528
a(I2
g168
tp529
a(I3
g118
tp530
a(I0
g120
tp531
a(I1
g170
tp532
a(I2
g168
tp533
a(I3
g120
tp534
a(I0
g168
tp535
a(I1
g120
tp536
a(I2
g120
tp537
a(I3
g118
tp538
a(I0
g168
tp539
a(I1
g118
tp540
a(I2
g120
tp541
a(I3
g120
tp542
a(I0
g118
tp543
a(I1
g118
tp544
a(I2
g120
tp545
a(I3
g118
tp546
a(I0
g168
tp547
a(I1
g118
tp548
a(I2
g170
tp549
a(I3
g120
tp550
a(I0
g168
tp551
a(I1
g118
tp552
a(I2
g170
tp553
a(I3
g118
tp554
a(I0
g168
tp555
a(I1
g118
tp556
a(I2
g170
tp557
a(I3
g120
tp558
a(I0
g168
tp559
a(I1
g170
tp560
a(I2
g170
tp561
a(I3
g118
tp562
a(I0
g168
tp563
a(I1
g118
tp564
a(I2
g170
tp565
a(I3
g120
tp566
a(I0
g168
tp567
a(I1
g118
tp568
a(I2
g120
tp569
a(I3
g118
tp570
a(I0
g118
tp571
a(I1
g170
tp572
a(I2
g170
tp573
a(I3
g120
tp574
a(I0
g168
tp575
a(I1
g168
tp576
a(I2
g170
tp577
a(I3
g118
tp578
a(I0
g168
tp579
a(I1
g118
tp580
a(I2
g118
tp581
a(I3
g120
tp582
a(I0
g168
tp583
a(I1
g118
tp584
a(I2
g118
tp585
a(I3
g170
tp586
a(I0
g274
tp587
a(I1
g168
tp588
a(I2
g170
tp589
a(I3
g170
tp590
a(I0
g118
tp591
a(I1
g168
tp592
a(I2
g118
tp593
a(I3
g168
tp594
a(I0
g118
tp595
a(I1
g120
tp596
a(I2
g118
tp597
a(I3
g168
tp598
a(I0
g118
tp599
a(I1
g168
tp600
a(I2
g118
tp601
a(I3
g118
tp602
a(I0
g118
tp603
a(I1
g120
tp604
a(I2
g168
tp605
a(I3
g120
tp606
a(I0
g118
tp607
a(I1
g118
tp608
a(I2
g168
tp609
a(I3
g118
tp610
a(I0
g118
tp611
a(I1
g168
tp612
a(I2
g120
tp613
a(I3
g120
tp614
a(I0
g118
tp615
a(I1
g170
tp616
a(I2
g168
tp617
a(I3
g118
tp618
a(I0
g118
tp619
a(I1
g120
tp620
a(I2
g120
tp621
a(I3
g120
tp622
a(I0
g118
tp623
a(I1
g120
tp624
a(I2
g118
tp625
a(I3
g118
tp626
a(I0
g118
tp627
a(I1
g120
tp628
a(I2
g170
tp629
a(I3
g120
tp630
a(I0
g118
tp631
a(I1
g120
tp632
a(I2
g118
tp633
a(I3
g118
tp634
a(I0
g118
tp635
a(I1
g120
tp636
a(I2
g118
tp637
a(I3
g120
tp638
a(I0
g168
tp639
a(I1
g120
tp640
a(I2
g118
tp641
a(I3
g118
tp642
a(I0
g168
tp643
a(I1
g120
tp644
a(I2
g170
tp645
a(I3
g120
tp646
a(I0
g120
tp647
a(I1
g120
tp648
a(I2
g168
tp649
a(I3
g118
tp650
a(I0
g120
tp651
a(I1
g120
tp652
a(I2
g118
tp653
a(I3
g120
tp654
a(I0
g120
tp655
a(I1
g120
tp656
a(I2
g168
tp657
a(I3
g118
tp658
a(I0
g120
tp659
a(I1
g120
tp660
a(I2
g168
tp661
a(I3
g120
tp662
a(I0
g168
tp663
a(I1
g120
tp664
a(I2
g118
tp665
a(I3
g118
tp666
a(I0
g120
tp667
a(I1
g170
tp668
a(I2
g120
tp669
a(I3
g120
tp670
a(I0
g120
tp671
a(I1
g170
tp672
a(I2
g170
tp673
a(I3
g118
tp674
a(I0
g120
tp675
a(I1
g118
tp676
a(I2
g170
tp677
a(I3
g120
tp678
a(I0
g168
tp679
a(I1
g118
tp680
a(I2
g120
tp681
a(I3
g118
tp682
a(I0
g120
tp683
a(I1
g118
tp684
a(I2
g170
tp685
a(I3
g120
tp686
a(I0
g120
tp687
a(I1
g118
tp688
a(I2
g168
tp689
a(I3
g118
tp690
a(I0
g168
tp691
a(I1
g170
tp692
a(I2
g118
tp693
a(I3
g120
tp694
a(I0
g168
tp695
a(I1
g170
tp696
a(I2
g118
tp697
a(I3
g118
tp698
a(I0
g118
tp699
a(I1
g170
tp700
a(I2
g170
tp701
a(I3
g120
tp702
a(I0
g168
tp703
a(I1
g120
tp704
a(I2
g168
tp705
a(I3
g118
tp706
a(I0
g168
tp707
a(I1
g120
tp708
a(I2
g120
tp709
a(I3
g120
tp710
a(I0
g168
tp711
a(I1
g120
tp712
a(I2
g120
tp713
a(I3
g118
tp714
a(I0
g168
tp715
a(I1
g170
tp716
a(I2
g170
tp717
a(I3
g120
tp718
a(I0
g168
tp719
a(I1
g170
tp720
a(I2
g168
tp721
a(I3
g118
tp722
a(I0
g118
tp723
a(I1
g170
tp724
a(I2
g120
tp725
a(I3
g120
tp726
a(I0
g168
tp727
a(I1
g170
tp728
a(I2
g120
tp729
a(I3
g118
tp730
a(I0
g168
tp731
a(I1
g170
tp732
a(I2
g120
tp733
a(I3
g120
tp734
a(I0
g168
tp735
a(I1
g170
tp736
a(I2
g168
tp737
a(I3
g118
tp738
a(I0
g168
tp739
a(I1
g118
tp740
a(I2
g168
tp741
a(I3
g120
tp742
a(I0
g168
tp743
a(I1
g170
tp744
a(I2
g170
tp745
a(I3
g170
tp746
a(I0
g118
tp747
a(I1
g170
tp748
a(I2
g170
tp749
a(I3
g168
tp750
a(I0
g118
tp751
a(I1
g118
tp752
a(I2
g118
tp753
a(I3
g118
tp754
a(I0
g118
tp755
a(I1
g170
tp756
a(I2
g118
tp757
a(I3
g120
tp758
a(I0
g118
tp759
a(I1
g170
tp760
a(I2
g118
tp761
a(I3
g118
tp762
a(I0
g118
tp763
a(I1
g118
tp764
a(I2
g118
tp765
a(I3
g120
tp766
a(I0
g118
tp767
a(I1
g170
tp768
a(I2
g168
tp769
a(I3
g118
tp770
a(I0
g118
tp771
a(I1
g170
tp772
a(I2
g168
tp773
a(I3
g120
tp774
a(I0
g118
tp775
a(I1
g118
tp776
a(I2
g168
tp777
a(I3
g118
tp778
a(I0
g118
tp779
a(I1
g170
tp780
a(I2
g168
tp781
a(I3
g120
tp782
a(I0
g118
tp783
a(I1
g170
tp784
a(I2
g168
tp785
a(I3
g118
tp786
a(I0
g118
tp787
a(I1
g170
tp788
a(I2
g168
tp789
a(I3
g120
tp790
a(I0
g118
tp791
a(I1
g118
tp792
a(I2
g118
tp793
a(I3
g118
tp794
a(I0
g168
tp795
a(I1
g120
tp796
a(I2
g168
tp797
a(I3
g120
tp798
a(I0
g168
tp799
a(I1
g170
tp800
a(I2
g168
tp801
a(I3
g118
tp802
a(I0
g120
tp803
a(I1
g120
tp804
a(I2
g168
tp805
a(I3
g120
tp806
a(I0
g120
tp807
a(I1
g118
tp808
a(I2
g120
tp809
a(I3
g118
tp810
a(I0
g120
tp811
a(I1
g170
tp812
a(I2
g120
tp813
a(I3
g120
tp814
a(I0
g120
tp815
a(I1
g170
tp816
a(I2
g120
tp817
a(I3
g118
tp818
a(I0
g168
tp819
a(I1
g120
tp820
a(I2
g170
tp821
a(I3
g120
tp822
a(I0
g120
tp823
a(I1
g170
tp824
a(I2
g118
tp825
a(I3
g118
tp826
a(I0
g120
tp827
a(I1
g170
tp828
a(I2
g170
tp829
a(I3
g120
tp830
a(I0
g120
tp831
a(I1
g118
tp832
a(I2
g170
tp833
a(I3
g118
tp834
a(I0
g120
tp835
a(I1
g170
tp836
a(I2
g118
tp837
a(I3
g120
tp838
a(I0
g118
tp839
a(I1
g170
tp840
a(I2
g170
tp841
a(I3
g118
tp842
a(I0
g118
tp843
a(I1
g120
tp844
a(I2
g170
tp845
a(I3
g120
tp846
a(I0
g118
tp847
a(I1
g120
tp848
a(I2
g170
tp849
a(I3
g118
tp850
a(I0
g118
tp851
a(I1
g120
tp852
a(I2
g170
tp853
a(I3
g120
tp854
a(I0
g118
tp855
a(I1
g120
tp856
a(I2
g118
tp857
a(I3
g118
tp858
a(I0
g118
tp859
a(I1
g120
tp860
a(I2
g120
tp861
a(I3
g120
tp862
a(I0
g118
tp863
a(I1
g118
tp864
a(I2
g120
tp865
a(I3
g118
tp866
a(I0
g118
tp867
a(I1
g118
tp868
a(I2
g120
tp869
a(I3
g120
tp870
a(I0
g118
tp871
a(I1
g118
tp872
a(I2
g168
tp873
a(I3
g118
tp874
a(I0
g118
tp875
a(I1
g118
tp876
a(I2
g168
tp877
a(I3
g120
tp878
a(I0
g118
tp879
a(I1
g118
tp880
a(I2
g170
tp881
a(I3
g118
tp882
a(I0
g118
tp883
a(I1
g168
tp884
a(I2
g170
tp885
a(I3
g120
tp886
a(I0
g168
tp887
a(I1
g118
tp888
a(I2
g118
tp889
a(I3
g118
tp890
a(I0
g168
tp891
a(I1
g118
tp892
a(I2
g118
tp893
a(I3
g120
tp894
a(I0
g120
tp895
a(I1
g118
tp896
a(I2
g170
tp897
a(I3
g118
tp898
a(I0
g120
tp899
a(I1
g118
tp900
a(I2
g170
tp901
a(I3
g120
tp902
a(I0
g120
tp903
a(I1
g168
tp904
a(I2
g120
tp905
a(I3
g118
tp906
a(I0
g120
tp907
a(I1
g168
tp908
a(I2
g120
tp909
a(I3
g120
tp910
a(I0
g168
tp911
a(I1
g118
tp912
a(I2
g118
tp913
a(I3
g118
tp914
a(I0
g120
tp915
a(I1
g118
tp916
a(I2
g118
tp917
a(I3
g120
tp918
a(I0
g120
tp919
a(I1
g170
tp920
a(I2
g118
tp921
a(I3
g118
tp922
a(I0
g120
tp923
a(I1
g168
tp924
a(I2
g118
tp925
a(I3
g120
tp926
a(I0
g168
tp927
a(I1
g118
tp928
a(I2
g118
tp929
a(I3
g118
tp930
a(I0
g120
tp931
a(I1
g118
tp932
a(I2
g118
tp933
a(I3
g120
tp934
a(I0
g120
tp935
a(I1
g170
tp936
a(I2
g118
tp937
a(I3
g118
tp938
a(I0
g168
tp939
a(I1
g168
tp940
a(I2
g118
tp941
a(I3
g120
tp942
a(I0
g168
tp943
a(I1
g120
tp944
a(I2
g118
tp945
a(I3
g118
tp946
a(I0
g118
tp947
a(I1
g168
tp948
a(I2
g118
tp949
a(I3
g120
tp950
a(I0
g168
tp951
a(I1
g168
tp952
a(I2
g118
tp953
a(I3
g118
tp954
a(I0
g168
tp955
a(I1
g118
tp956
a(I2
g118
tp957
a(I3
g120
tp958
a(I0
g168
tp959
a(I1
g120
tp960
a(I2
g118
tp961
a(I3
g118
tp962
a(I0
g168
tp963
a(I1
g168
tp964
a(I2
g168
tp965
a(I3
g120
tp966
a(I0
g168
tp967
a(I1
g168
tp968
a(I2
g168
tp969
a(I3
g118
tp970
a(I0
g168
tp971
a(I1
g118
tp972
asS'length'
p973
I1200
sS'agents'
p974
(lp975
(igame
Agent
p976
(dp977
S'index'
p978
I0
sba(igame
Agent
p979
(dp980
g978
I0
sba(igame
Agent
p981
(dp982
g978
I0
sba(igame
Agent
p983
(dp984
g978
I0
sbasS'redTeamName'
p985
S'baselineTeam'
p986
s.